target datalayout = "e-m:e-p270:32:32-p271:32:32-p272:64:64-i64:64-i128:128-f80:128-n8:16:32:64-S128"
target triple = "x86_64-pc-linux-gnu"

%struct.Crossover = type { ptr, i64, [15 x double] }
%struct.AVFilterLink = type { ptr, ptr, ptr, ptr, i32, i32, i32, i32, %struct.AVRational, i32, i32, i32, %struct.AVChannelLayout, %struct.AVRational, ptr, i32, %struct.AVFilterFormatsConfig, %struct.AVFilterFormatsConfig }
%struct.AVChannelLayout = type { i32, i32, %union.anon.1, ptr }
%union.anon.1 = type { i64 }
%struct.AVRational = type { i32, i32 }
%struct.AVFilterFormatsConfig = type { ptr, ptr, ptr, ptr, ptr }

; Function Attrs: nounwind uwtable
define internal void @square_quadratic(ptr noundef %0, ptr noundef %1) #1 {
  %3 = alloca ptr, align 8
  %4 = alloca ptr, align 8
  store ptr %0, ptr %3, align 8, !tbaa !57
  store ptr %1, ptr %4, align 8, !tbaa !57
  %5 = load ptr, ptr %3, align 8, !tbaa !57
  %6 = getelementptr inbounds double, ptr %5, i64 0
  %7 = load double, ptr %6, align 8, !tbaa !66
  %8 = load ptr, ptr %3, align 8, !tbaa !57
  %9 = getelementptr inbounds double, ptr %8, i64 0
  %10 = load double, ptr %9, align 8, !tbaa !66
  %11 = fmul nsz double %7, %10
  %12 = load ptr, ptr %4, align 8, !tbaa !57
  %13 = getelementptr inbounds double, ptr %12, i64 0
  store double %11, ptr %13, align 8, !tbaa !66
  %14 = load ptr, ptr %3, align 8, !tbaa !57
  %15 = getelementptr inbounds double, ptr %14, i64 0
  %16 = load double, ptr %15, align 8, !tbaa !66
  %17 = fmul nsz double 2.000000e+00, %16
  %18 = load ptr, ptr %3, align 8, !tbaa !57
  %19 = getelementptr inbounds double, ptr %18, i64 1
  %20 = load double, ptr %19, align 8, !tbaa !66
  %21 = fmul nsz double %17, %20
  %22 = load ptr, ptr %4, align 8, !tbaa !57
  %23 = getelementptr inbounds double, ptr %22, i64 1
  store double %21, ptr %23, align 8, !tbaa !66
  %24 = load ptr, ptr %3, align 8, !tbaa !57
  %25 = getelementptr inbounds double, ptr %24, i64 0
  %26 = load double, ptr %25, align 8, !tbaa !66
  %27 = fmul nsz double 2.000000e+00, %26
  %28 = load ptr, ptr %3, align 8, !tbaa !57
  %29 = getelementptr inbounds double, ptr %28, i64 2
  %30 = load double, ptr %29, align 8, !tbaa !66
  %31 = load ptr, ptr %3, align 8, !tbaa !57
  %32 = getelementptr inbounds double, ptr %31, i64 1
  %33 = load double, ptr %32, align 8, !tbaa !66
  %34 = load ptr, ptr %3, align 8, !tbaa !57
  %35 = getelementptr inbounds double, ptr %34, i64 1
  %36 = load double, ptr %35, align 8, !tbaa !66
  %37 = fmul nsz double %33, %36
  %38 = call nsz double @llvm.fmuladd.f64(double %27, double %30, double %37)
  %39 = load ptr, ptr %4, align 8, !tbaa !57
  %40 = getelementptr inbounds double, ptr %39, i64 2
  store double %38, ptr %40, align 8, !tbaa !66
  %41 = load ptr, ptr %3, align 8, !tbaa !57
  %42 = getelementptr inbounds double, ptr %41, i64 1
  %43 = load double, ptr %42, align 8, !tbaa !66
  %44 = fmul nsz double 2.000000e+00, %43
  %45 = load ptr, ptr %3, align 8, !tbaa !57
  %46 = getelementptr inbounds double, ptr %45, i64 2
  %47 = load double, ptr %46, align 8, !tbaa !66
  %48 = fmul nsz double %44, %47
  %49 = load ptr, ptr %4, align 8, !tbaa !57
  %50 = getelementptr inbounds double, ptr %49, i64 3
  store double %48, ptr %50, align 8, !tbaa !66
  %51 = load ptr, ptr %3, align 8, !tbaa !57
  %52 = getelementptr inbounds double, ptr %51, i64 2
  %53 = load double, ptr %52, align 8, !tbaa !66
  %54 = load ptr, ptr %3, align 8, !tbaa !57
  %55 = getelementptr inbounds double, ptr %54, i64 2
  %56 = load double, ptr %55, align 8, !tbaa !66
  %57 = fmul nsz double %53, %56
  %58 = load ptr, ptr %4, align 8, !tbaa !57
  %59 = getelementptr inbounds double, ptr %58, i64 4
  store double %57, ptr %59, align 8, !tbaa !66
  ret void
}

; Function Attrs: nounwind uwtable
define internal i32 @crossover_setup(ptr noundef %0, ptr noundef %1, double noundef %2) #1 {
  %4 = alloca i32, align 4
  %5 = alloca ptr, align 8
  %6 = alloca ptr, align 8
  %7 = alloca double, align 8
  %8 = alloca double, align 8
  %9 = alloca double, align 8
  %10 = alloca double, align 8
  %11 = alloca [9 x double], align 16
  %12 = alloca double, align 8
  %13 = alloca i32, align 4
  %14 = alloca i32, align 4
  store ptr %0, ptr %5, align 8, !tbaa !33
  store ptr %1, ptr %6, align 8, !tbaa !71
  store double %2, ptr %7, align 8, !tbaa !66
  call void @llvm.lifetime.start.p0(i64 8, ptr %8) #8
  %15 = load double, ptr %7, align 8, !tbaa !66
  %16 = fmul nsz double 0x401921FB54442D18, %15
  %17 = load ptr, ptr %5, align 8, !tbaa !33
  %18 = getelementptr inbounds nuw %struct.AVFilterLink, ptr %17, i32 0, i32 11
  %19 = load i32, ptr %18, align 8, !tbaa !106
  %20 = sitofp i32 %19 to double
  %21 = fdiv nsz double %16, %20
  store double %21, ptr %8, align 8, !tbaa !66
  call void @llvm.lifetime.start.p0(i64 8, ptr %9) #8
  %22 = call nsz double @llvm.sqrt.f64(double 5.000000e-01)
  store double %22, ptr %9, align 8, !tbaa !66
  call void @llvm.lifetime.start.p0(i64 8, ptr %10) #8
  %23 = load double, ptr %8, align 8, !tbaa !66
  %24 = call nsz double @llvm.sin.f64(double %23)
  %25 = load double, ptr %9, align 8, !tbaa !66
  %26 = fmul nsz double 2.000000e+00, %25
  %27 = fdiv nsz double %24, %26
  store double %27, ptr %10, align 8, !tbaa !66
  call void @llvm.lifetime.start.p0(i64 72, ptr %11) #8
  call void @llvm.lifetime.start.p0(i64 8, ptr %12) #8
  call void @llvm.lifetime.start.p0(i64 4, ptr %13) #8
  %28 = load double, ptr %8, align 8, !tbaa !66
  %29 = fcmp nsz ogt double %28, 0x400921FB54442D18
  br i1 %29, label %30, label %31

30:                                               ; preds = %3
  store i32 -22, ptr %4, align 4
  store i32 1, ptr %14, align 4
  br label %117

31:                                               ; preds = %3
  %32 = load double, ptr %8, align 8, !tbaa !66
  %33 = call nsz double @llvm.cos.f64(double %32)
  %34 = fsub nsz double 1.000000e+00, %33
  %35 = fdiv nsz double %34, 2.000000e+00
  %36 = getelementptr inbounds [9 x double], ptr %11, i64 0, i64 0
  store double %35, ptr %36, align 16, !tbaa !66
  %37 = load double, ptr %8, align 8, !tbaa !66
  %38 = call nsz double @llvm.cos.f64(double %37)
  %39 = fsub nsz double 1.000000e+00, %38
  %40 = getelementptr inbounds [9 x double], ptr %11, i64 0, i64 1
  store double %39, ptr %40, align 8, !tbaa !66
  %41 = load double, ptr %8, align 8, !tbaa !66
  %42 = call nsz double @llvm.cos.f64(double %41)
  %43 = fsub nsz double 1.000000e+00, %42
  %44 = fdiv nsz double %43, 2.000000e+00
  %45 = getelementptr inbounds [9 x double], ptr %11, i64 0, i64 2
  store double %44, ptr %45, align 16, !tbaa !66
  %46 = load double, ptr %8, align 8, !tbaa !66
  %47 = call nsz double @llvm.cos.f64(double %46)
  %48 = fadd nsz double 1.000000e+00, %47
  %49 = fdiv nsz double %48, 2.000000e+00
  %50 = getelementptr inbounds [9 x double], ptr %11, i64 0, i64 3
  store double %49, ptr %50, align 8, !tbaa !66
  %51 = load double, ptr %8, align 8, !tbaa !66
  %52 = call nsz double @llvm.cos.f64(double %51)
  %53 = fadd nsz double 1.000000e+00, %52
  %54 = fneg nsz double %53
  %55 = getelementptr inbounds [9 x double], ptr %11, i64 0, i64 4
  store double %54, ptr %55, align 16, !tbaa !66
  %56 = load double, ptr %8, align 8, !tbaa !66
  %57 = call nsz double @llvm.cos.f64(double %56)
  %58 = fadd nsz double 1.000000e+00, %57
  %59 = fdiv nsz double %58, 2.000000e+00
  %60 = getelementptr inbounds [9 x double], ptr %11, i64 0, i64 5
  store double %59, ptr %60, align 8, !tbaa !66
  %61 = load double, ptr %10, align 8, !tbaa !66
  %62 = fadd nsz double 1.000000e+00, %61
  %63 = getelementptr inbounds [9 x double], ptr %11, i64 0, i64 6
  store double %62, ptr %63, align 16, !tbaa !66
  %64 = load double, ptr %8, align 8, !tbaa !66
  %65 = call nsz double @llvm.cos.f64(double %64)
  %66 = fmul nsz double -2.000000e+00, %65
  %67 = getelementptr inbounds [9 x double], ptr %11, i64 0, i64 7
  store double %66, ptr %67, align 8, !tbaa !66
  %68 = load double, ptr %10, align 8, !tbaa !66
  %69 = fsub nsz double 1.000000e+00, %68
  %70 = getelementptr inbounds [9 x double], ptr %11, i64 0, i64 8
  store double %69, ptr %70, align 16, !tbaa !66
  %71 = getelementptr inbounds [9 x double], ptr %11, i64 0, i64 6
  %72 = load double, ptr %71, align 16, !tbaa !66
  store double %72, ptr %12, align 8, !tbaa !66
  store i32 0, ptr %13, align 4, !tbaa !29
  br label %73

73:                                               ; preds = %83, %31
  %74 = load i32, ptr %13, align 4, !tbaa !29
  %75 = icmp slt i32 %74, 9
  br i1 %75, label %76, label %86

76:                                               ; preds = %73
  %77 = load double, ptr %12, align 8, !tbaa !66
  %78 = load i32, ptr %13, align 4, !tbaa !29
  %79 = sext i32 %78 to i64
  %80 = getelementptr inbounds [9 x double], ptr %11, i64 0, i64 %79
  %81 = load double, ptr %80, align 8, !tbaa !66
  %82 = fdiv nsz double %81, %77
  store double %82, ptr %80, align 8, !tbaa !66
  br label %83

83:                                               ; preds = %76
  %84 = load i32, ptr %13, align 4, !tbaa !29
  %85 = add nsw i32 %84, 1
  store i32 %85, ptr %13, align 4, !tbaa !29
  br label %73, !llvm.loop !128

86:                                               ; preds = %73
  %87 = getelementptr inbounds [9 x double], ptr %11, i64 0, i64 0
  %88 = load ptr, ptr %6, align 8, !tbaa !71
  %89 = getelementptr inbounds nuw %struct.Crossover, ptr %88, i32 0, i32 2
  %90 = getelementptr inbounds [15 x double], ptr %89, i64 0, i64 0
  call void @square_quadratic(ptr noundef %87, ptr noundef %90)
  %91 = getelementptr inbounds [9 x double], ptr %11, i64 0, i64 0
  %92 = getelementptr inbounds double, ptr %91, i64 3
  %93 = load ptr, ptr %6, align 8, !tbaa !71
  %94 = getelementptr inbounds nuw %struct.Crossover, ptr %93, i32 0, i32 2
  %95 = getelementptr inbounds [15 x double], ptr %94, i64 0, i64 0
  %96 = getelementptr inbounds double, ptr %95, i64 5
  call void @square_quadratic(ptr noundef %92, ptr noundef %96)
  %97 = getelementptr inbounds [9 x double], ptr %11, i64 0, i64 0
  %98 = getelementptr inbounds double, ptr %97, i64 6
  %99 = load ptr, ptr %6, align 8, !tbaa !71
  %100 = getelementptr inbounds nuw %struct.Crossover, ptr %99, i32 0, i32 2
  %101 = getelementptr inbounds [15 x double], ptr %100, i64 0, i64 0
  %102 = getelementptr inbounds double, ptr %101, i64 10
  call void @square_quadratic(ptr noundef %98, ptr noundef %102)
  %103 = load ptr, ptr %5, align 8, !tbaa !33
  %104 = getelementptr inbounds nuw %struct.AVFilterLink, ptr %103, i32 0, i32 12
  %105 = getelementptr inbounds nuw %struct.AVChannelLayout, ptr %104, i32 0, i32 1
  %106 = load i32, ptr %105, align 4, !tbaa !54
  %107 = sext i32 %106 to i64
  %108 = call noalias ptr @av_calloc(i64 noundef %107, i64 noundef 192)
  %109 = load ptr, ptr %6, align 8, !tbaa !71
  %110 = getelementptr inbounds nuw %struct.Crossover, ptr %109, i32 0, i32 0
  store ptr %108, ptr %110, align 8, !tbaa !75
  %111 = load ptr, ptr %6, align 8, !tbaa !71
  %112 = getelementptr inbounds nuw %struct.Crossover, ptr %111, i32 0, i32 0
  %113 = load ptr, ptr %112, align 8, !tbaa !75
  %114 = icmp ne ptr %113, null
  br i1 %114, label %116, label %115

115:                                              ; preds = %86
  store i32 -12, ptr %4, align 4
  store i32 1, ptr %14, align 4
  br label %117

116:                                              ; preds = %86
  store i32 0, ptr %4, align 4
  store i32 1, ptr %14, align 4
  br label %117

117:                                              ; preds = %116, %115, %30
  call void @llvm.lifetime.end.p0(i64 4, ptr %13) #8
  call void @llvm.lifetime.end.p0(i64 8, ptr %12) #8
  call void @llvm.lifetime.end.p0(i64 72, ptr %11) #8
  call void @llvm.lifetime.end.p0(i64 8, ptr %10) #8
  call void @llvm.lifetime.end.p0(i64 8, ptr %9) #8
  call void @llvm.lifetime.end.p0(i64 8, ptr %8) #8
  %118 = load i32, ptr %4, align 4
  ret i32 %118
}