; Function Attrs: nounwind uwtable
define internal fastcc range(i32 -22, 1) i32 @crossover_setup(ptr noundef readonly captures(none) %0, ptr noundef writeonly captures(none) %1, double noundef %2) unnamed_addr #1 {
  %4 = alloca [9 x double], align 16
  %5 = fmul nsz double %2, 0x401921FB54442D18
  %6 = getelementptr inbounds nuw i8, ptr %0, i64 64
  %7 = load i32, ptr %6, align 8, !tbaa !97
  %8 = sitofp i32 %7 to double
  %9 = fdiv nsz double %5, %8
  call void @llvm.lifetime.start.p0(i64 72, ptr nonnull %4) #9
  %10 = fcmp nsz ogt double %9, 0x400921FB54442D18
  br i1 %10, label %88, label %11

11:                                               ; preds = %3
  %12 = tail call nsz double @llvm.sin.f64(double %9)
  %13 = fdiv nsz double %12, 0x3FF6A09E667F3BCD
  %14 = tail call nsz double @llvm.cos.f64(double %9)
  %15 = fsub nsz double 1.000000e+00, %14
  %16 = fmul nsz double %15, 5.000000e-01
  store double %16, ptr %4, align 16, !tbaa !62
  %17 = getelementptr inbounds nuw i8, ptr %4, i64 8
  store double %15, ptr %17, align 8, !tbaa !62
  %18 = getelementptr inbounds nuw i8, ptr %4, i64 16
  store double %16, ptr %18, align 16, !tbaa !62
  %19 = fadd nsz double %14, 1.000000e+00
  %20 = fmul nsz double %19, 5.000000e-01
  %21 = getelementptr inbounds nuw i8, ptr %4, i64 24
  store double %20, ptr %21, align 8, !tbaa !62
  %22 = fneg nsz double %19
  %23 = getelementptr inbounds nuw i8, ptr %4, i64 32
  store double %22, ptr %23, align 16, !tbaa !62
  %24 = getelementptr inbounds nuw i8, ptr %4, i64 40
  store double %20, ptr %24, align 8, !tbaa !62
  %25 = fadd nsz double %13, 1.000000e+00
  %26 = getelementptr inbounds nuw i8, ptr %4, i64 48
  store double %25, ptr %26, align 16, !tbaa !62
  %27 = fmul nsz double %14, -2.000000e+00
  %28 = getelementptr inbounds nuw i8, ptr %4, i64 56
  store double %27, ptr %28, align 8, !tbaa !62
  %29 = fsub nsz double 1.000000e+00, %13
  %30 = getelementptr inbounds nuw i8, ptr %4, i64 64
  store double %29, ptr %30, align 16, !tbaa !62
  br label %31

31:                                               ; preds = %11, %31
  %indvars.iv = phi i64 [ 0, %11 ], [ %indvars.iv.next, %31 ]
  %32 = getelementptr inbounds nuw [9 x double], ptr %4, i64 0, i64 %indvars.iv
  %33 = load double, ptr %32, align 8, !tbaa !62
  %34 = fdiv nsz double %33, %25
  store double %34, ptr %32, align 8, !tbaa !62
  %indvars.iv.next = add nuw nsw i64 %indvars.iv, 1
  %exitcond.not = icmp eq i64 %indvars.iv.next, 9
  br i1 %exitcond.not, label %35, label %31, !llvm.loop !114

35:                                               ; preds = %31
  %36 = getelementptr inbounds nuw i8, ptr %1, i64 16
  %37 = load double, ptr %4, align 16, !tbaa !62
  %38 = fmul nsz double %37, %37
  store double %38, ptr %36, align 8, !tbaa !62
  %39 = fmul nsz double %37, 2.000000e+00
  %40 = load double, ptr %17, align 8, !tbaa !62
  %41 = fmul nsz double %39, %40
  %42 = getelementptr inbounds nuw i8, ptr %1, i64 24
  store double %41, ptr %42, align 8, !tbaa !62
  %43 = load double, ptr %18, align 16, !tbaa !62
  %44 = fmul nsz double %40, %40
  %45 = tail call nsz double @llvm.fmuladd.f64(double %39, double %43, double %44)
  %46 = getelementptr inbounds nuw i8, ptr %1, i64 32
  store double %45, ptr %46, align 8, !tbaa !62
  %47 = fmul nsz double %40, 2.000000e+00
  %48 = fmul nsz double %47, %43
  %49 = getelementptr inbounds nuw i8, ptr %1, i64 40
  store double %48, ptr %49, align 8, !tbaa !62
  %50 = fmul nsz double %43, %43
  %51 = getelementptr inbounds nuw i8, ptr %1, i64 48
  store double %50, ptr %51, align 8, !tbaa !62
  %52 = getelementptr inbounds nuw i8, ptr %1, i64 56
  %53 = load double, ptr %21, align 8, !tbaa !62
  %54 = fmul nsz double %53, %53
  store double %54, ptr %52, align 8, !tbaa !62
  %55 = fmul nsz double %53, 2.000000e+00
  %56 = load double, ptr %23, align 16, !tbaa !62
  %57 = fmul nsz double %55, %56
  %58 = getelementptr inbounds nuw i8, ptr %1, i64 64
  store double %57, ptr %58, align 8, !tbaa !62
  %59 = load double, ptr %24, align 8, !tbaa !62
  %60 = fmul nsz double %56, %56
  %61 = tail call nsz double @llvm.fmuladd.f64(double %55, double %59, double %60)
  %62 = getelementptr inbounds nuw i8, ptr %1, i64 72
  store double %61, ptr %62, align 8, !tbaa !62
  %63 = fmul nsz double %56, 2.000000e+00
  %64 = fmul nsz double %63, %59
  %65 = getelementptr inbounds nuw i8, ptr %1, i64 80
  store double %64, ptr %65, align 8, !tbaa !62
  %66 = fmul nsz double %59, %59
  %67 = getelementptr inbounds nuw i8, ptr %1, i64 88
  store double %66, ptr %67, align 8, !tbaa !62
  %68 = getelementptr inbounds nuw i8, ptr %1, i64 96
  %69 = load double, ptr %26, align 16, !tbaa !62
  %70 = fmul nsz double %69, %69
  store double %70, ptr %68, align 8, !tbaa !62
  %71 = fmul nsz double %69, 2.000000e+00
  %72 = load double, ptr %28, align 8, !tbaa !62
  %73 = fmul nsz double %71, %72
  %74 = getelementptr inbounds nuw i8, ptr %1, i64 104
  store double %73, ptr %74, align 8, !tbaa !62
  %75 = load double, ptr %30, align 16, !tbaa !62
  %76 = fmul nsz double %72, %72
  %77 = tail call nsz double @llvm.fmuladd.f64(double %71, double %75, double %76)
  %78 = getelementptr inbounds nuw i8, ptr %1, i64 112
  store double %77, ptr %78, align 8, !tbaa !62
  %79 = fmul nsz double %72, 2.000000e+00
  %80 = fmul nsz double %79, %75
  %81 = getelementptr inbounds nuw i8, ptr %1, i64 120
  store double %80, ptr %81, align 8, !tbaa !62
  %82 = fmul nsz double %75, %75
  %83 = getelementptr inbounds nuw i8, ptr %1, i64 128
  store double %82, ptr %83, align 8, !tbaa !62
  %84 = getelementptr inbounds nuw i8, ptr %0, i64 76
  %85 = load i32, ptr %84, align 4, !tbaa !50
  %86 = sext i32 %85 to i64
  %87 = tail call noalias ptr @av_calloc(i64 noundef %86, i64 noundef 192) #9
  store ptr %87, ptr %1, align 8, !tbaa !60
  %.not = icmp eq ptr %87, null
  %. = select i1 %.not, i32 -12, i32 0
  br label %88

88:                                               ; preds = %35, %3
  %.024 = phi i32 [ -22, %3 ], [ %., %35 ]
  call void @llvm.lifetime.end.p0(i64 72, ptr nonnull %4) #9
  ret i32 %.024
}